target datalayout = "e-m:e-p270:32:32-p271:32:32-p272:64:64-i64:64-i128:128-f80:128-n8:16:32:64-S128"
target triple = "x86_64-pc-linux-gnu"

%struct.pointf_s = type { double, double }
%struct.obj_state_s = type { ptr, i32, %union.anon, i32, %struct.color_s, %struct.color_s, %struct.color_s, i32, double, i32, i32, double, ptr, double, double, double, ptr, ptr, ptr, ptr, ptr, ptr, ptr, ptr, ptr, ptr, ptr, ptr, ptr, ptr, ptr, ptr, ptr, i16, i32, i64, ptr, i64, ptr, ptr, i32, ptr, i32, ptr }
%union.anon = type { ptr }
%struct.color_s = type { %union.anon.0, i32 }
%union.anon.0 = type { [4 x double] }

; Function Attrs: nounwind uwtable
define internal void @cairogen_add_color_stop_rgba(ptr noundef %0, double noundef %1, ptr noundef %2) #0 {
  %4 = alloca ptr, align 8
  %5 = alloca double, align 8
  %6 = alloca ptr, align 8
  store ptr %0, ptr %4, align 8, !tbaa !94
  store double %1, ptr %5, align 8, !tbaa !48
  store ptr %2, ptr %6, align 8, !tbaa !89
  %7 = load ptr, ptr %4, align 8, !tbaa !94
  %8 = load double, ptr %5, align 8, !tbaa !48
  %9 = load ptr, ptr %6, align 8, !tbaa !89
  %10 = getelementptr inbounds nuw %struct.color_s, ptr %9, i32 0, i32 0
  %11 = getelementptr inbounds [4 x double], ptr %10, i64 0, i64 0
  %12 = load double, ptr %11, align 8, !tbaa !44
  %13 = load ptr, ptr %6, align 8, !tbaa !89
  %14 = getelementptr inbounds nuw %struct.color_s, ptr %13, i32 0, i32 0
  %15 = getelementptr inbounds [4 x double], ptr %14, i64 0, i64 1
  %16 = load double, ptr %15, align 8, !tbaa !44
  %17 = load ptr, ptr %6, align 8, !tbaa !89
  %18 = getelementptr inbounds nuw %struct.color_s, ptr %17, i32 0, i32 0
  %19 = getelementptr inbounds [4 x double], ptr %18, i64 0, i64 2
  %20 = load double, ptr %19, align 8, !tbaa !44
  %21 = load ptr, ptr %6, align 8, !tbaa !89
  %22 = getelementptr inbounds nuw %struct.color_s, ptr %21, i32 0, i32 0
  %23 = getelementptr inbounds [4 x double], ptr %22, i64 0, i64 3
  %24 = load double, ptr %23, align 8, !tbaa !44
  call void @cairo_pattern_add_color_stop_rgba(ptr noundef %7, double noundef %8, double noundef %12, double noundef %16, double noundef %20, double noundef %24)
  ret void
}

; Function Attrs: nounwind uwtable
define internal void @cairo_gradient_fill(ptr noundef %0, ptr noundef %1, i32 noundef %2, ptr noundef %3, i64 noundef %4) #0 {
  %6 = alloca ptr, align 8
  %7 = alloca ptr, align 8
  %8 = alloca i32, align 4
  %9 = alloca ptr, align 8
  %10 = alloca i64, align 8
  %11 = alloca ptr, align 8
  %12 = alloca double, align 8
  %13 = alloca [2 x %struct.pointf_s], align 16
  %14 = alloca %struct.pointf_s, align 8
  %15 = alloca double, align 8
  %16 = alloca double, align 8
  store ptr %0, ptr %6, align 8, !tbaa !34
  store ptr %1, ptr %7, align 8, !tbaa !65
  store i32 %2, ptr %8, align 4, !tbaa !42
  store ptr %3, ptr %9, align 8, !tbaa !81
  store i64 %4, ptr %10, align 8, !tbaa !43
  call void @llvm.lifetime.start.p0(i64 8, ptr %11) #14
  call void @llvm.lifetime.start.p0(i64 8, ptr %12) #14
  %17 = load ptr, ptr %7, align 8, !tbaa !65
  %18 = getelementptr inbounds nuw %struct.obj_state_s, ptr %17, i32 0, i32 7
  %19 = load i32, ptr %18, align 8, !tbaa !93
  %20 = sitofp i32 %19 to double
  %21 = fmul double %20, 0x400921FB54442D18
  %22 = fdiv double %21, 1.800000e+02
  store double %22, ptr %12, align 8, !tbaa !48
  call void @llvm.lifetime.start.p0(i64 32, ptr %13) #14
  call void @llvm.lifetime.start.p0(i64 16, ptr %14) #14
  %23 = load i32, ptr %8, align 4, !tbaa !42
  %24 = icmp eq i32 %23, 2
  br i1 %24, label %25, label %43

25:                                               ; preds = %5
  %26 = load ptr, ptr %9, align 8, !tbaa !81
  %27 = getelementptr inbounds [2 x %struct.pointf_s], ptr %13, i64 0, i64 0
  %28 = load i64, ptr %10, align 8, !tbaa !43
  %29 = load double, ptr %12, align 8, !tbaa !48
  call void @get_gradient_points(ptr noundef %26, ptr noundef %27, i64 noundef %28, double noundef %29, i32 noundef 0)
  %30 = getelementptr inbounds [2 x %struct.pointf_s], ptr %13, i64 0, i64 0
  %31 = getelementptr inbounds nuw %struct.pointf_s, ptr %30, i32 0, i32 0
  %32 = load double, ptr %31, align 16, !tbaa !71
  %33 = getelementptr inbounds [2 x %struct.pointf_s], ptr %13, i64 0, i64 0
  %34 = getelementptr inbounds nuw %struct.pointf_s, ptr %33, i32 0, i32 1
  %35 = load double, ptr %34, align 8, !tbaa !72
  %36 = getelementptr inbounds [2 x %struct.pointf_s], ptr %13, i64 0, i64 1
  %37 = getelementptr inbounds nuw %struct.pointf_s, ptr %36, i32 0, i32 0
  %38 = load double, ptr %37, align 16, !tbaa !71
  %39 = getelementptr inbounds [2 x %struct.pointf_s], ptr %13, i64 0, i64 1
  %40 = getelementptr inbounds nuw %struct.pointf_s, ptr %39, i32 0, i32 1
  %41 = load double, ptr %40, align 8, !tbaa !72
  %42 = call ptr @cairo_pattern_create_linear(double noundef %32, double noundef %35, double noundef %38, double noundef %41)
  store ptr %42, ptr %11, align 8, !tbaa !94
  br label %98

43:                                               ; preds = %5
  %44 = load ptr, ptr %9, align 8, !tbaa !81
  %45 = getelementptr inbounds [2 x %struct.pointf_s], ptr %13, i64 0, i64 0
  %46 = load i64, ptr %10, align 8, !tbaa !43
  call void @get_gradient_points(ptr noundef %44, ptr noundef %45, i64 noundef %46, double noundef 0.000000e+00, i32 noundef 1)
  call void @llvm.lifetime.start.p0(i64 8, ptr %15) #14
  %47 = getelementptr inbounds [2 x %struct.pointf_s], ptr %13, i64 0, i64 1
  %48 = getelementptr inbounds nuw %struct.pointf_s, ptr %47, i32 0, i32 0
  %49 = load double, ptr %48, align 16, !tbaa !71
  store double %49, ptr %15, align 8, !tbaa !48
  call void @llvm.lifetime.start.p0(i64 8, ptr %16) #14
  %50 = getelementptr inbounds [2 x %struct.pointf_s], ptr %13, i64 0, i64 1
  %51 = getelementptr inbounds nuw %struct.pointf_s, ptr %50, i32 0, i32 1
  %52 = load double, ptr %51, align 8, !tbaa !72
  store double %52, ptr %16, align 8, !tbaa !48
  %53 = load ptr, ptr %7, align 8, !tbaa !65
  %54 = getelementptr inbounds nuw %struct.obj_state_s, ptr %53, i32 0, i32 7
  %55 = load i32, ptr %54, align 8, !tbaa !93
  %56 = icmp eq i32 %55, 0
  br i1 %56, label %57, label %66

57:                                               ; preds = %43
  %58 = getelementptr inbounds [2 x %struct.pointf_s], ptr %13, i64 0, i64 0
  %59 = getelementptr inbounds nuw %struct.pointf_s, ptr %58, i32 0, i32 0
  %60 = load double, ptr %59, align 16, !tbaa !71
  %61 = getelementptr inbounds nuw %struct.pointf_s, ptr %14, i32 0, i32 0
  store double %60, ptr %61, align 8, !tbaa !71
  %62 = getelementptr inbounds [2 x %struct.pointf_s], ptr %13, i64 0, i64 0
  %63 = getelementptr inbounds nuw %struct.pointf_s, ptr %62, i32 0, i32 1
  %64 = load double, ptr %63, align 8, !tbaa !72
  %65 = getelementptr inbounds nuw %struct.pointf_s, ptr %14, i32 0, i32 1
  store double %64, ptr %65, align 8, !tbaa !72
  br label %84

66:                                               ; preds = %43
  %67 = getelementptr inbounds [2 x %struct.pointf_s], ptr %13, i64 0, i64 0
  %68 = getelementptr inbounds nuw %struct.pointf_s, ptr %67, i32 0, i32 0
  %69 = load double, ptr %68, align 16, !tbaa !71
  %70 = load double, ptr %15, align 8, !tbaa !48
  %71 = load double, ptr %12, align 8, !tbaa !48
  %72 = call double @cos(double noundef %71) #14, !tbaa !42
  %73 = call double @llvm.fmuladd.f64(double %70, double %72, double %69)
  %74 = getelementptr inbounds nuw %struct.pointf_s, ptr %14, i32 0, i32 0
  store double %73, ptr %74, align 8, !tbaa !71
  %75 = getelementptr inbounds [2 x %struct.pointf_s], ptr %13, i64 0, i64 0
  %76 = getelementptr inbounds nuw %struct.pointf_s, ptr %75, i32 0, i32 1
  %77 = load double, ptr %76, align 8, !tbaa !72
  %78 = load double, ptr %15, align 8, !tbaa !48
  %79 = load double, ptr %12, align 8, !tbaa !48
  %80 = call double @sin(double noundef %79) #14, !tbaa !42
  %81 = fneg double %78
  %82 = call double @llvm.fmuladd.f64(double %81, double %80, double %77)
  %83 = getelementptr inbounds nuw %struct.pointf_s, ptr %14, i32 0, i32 1
  store double %82, ptr %83, align 8, !tbaa !72
  br label %84

84:                                               ; preds = %66, %57
  %85 = getelementptr inbounds nuw %struct.pointf_s, ptr %14, i32 0, i32 0
  %86 = load double, ptr %85, align 8, !tbaa !71
  %87 = getelementptr inbounds nuw %struct.pointf_s, ptr %14, i32 0, i32 1
  %88 = load double, ptr %87, align 8, !tbaa !72
  %89 = load double, ptr %15, align 8, !tbaa !48
  %90 = getelementptr inbounds [2 x %struct.pointf_s], ptr %13, i64 0, i64 0
  %91 = getelementptr inbounds nuw %struct.pointf_s, ptr %90, i32 0, i32 0
  %92 = load double, ptr %91, align 16, !tbaa !71
  %93 = getelementptr inbounds [2 x %struct.pointf_s], ptr %13, i64 0, i64 0
  %94 = getelementptr inbounds nuw %struct.pointf_s, ptr %93, i32 0, i32 1
  %95 = load double, ptr %94, align 8, !tbaa !72
  %96 = load double, ptr %16, align 8, !tbaa !48
  %97 = call ptr @cairo_pattern_create_radial(double noundef %86, double noundef %88, double noundef %89, double noundef %92, double noundef %95, double noundef %96)
  store ptr %97, ptr %11, align 8, !tbaa !94
  call void @llvm.lifetime.end.p0(i64 8, ptr %16) #14
  call void @llvm.lifetime.end.p0(i64 8, ptr %15) #14
  br label %98

98:                                               ; preds = %84, %25
  %99 = load ptr, ptr %7, align 8, !tbaa !65
  %100 = getelementptr inbounds nuw %struct.obj_state_s, ptr %99, i32 0, i32 8
  %101 = load double, ptr %100, align 8, !tbaa !96
  %102 = fcmp ogt double %101, 0.000000e+00
  br i1 %102, label %103, label %117

103:                                              ; preds = %98
  %104 = load ptr, ptr %11, align 8, !tbaa !94
  %105 = load ptr, ptr %7, align 8, !tbaa !65
  %106 = getelementptr inbounds nuw %struct.obj_state_s, ptr %105, i32 0, i32 8
  %107 = load double, ptr %106, align 8, !tbaa !96
  %108 = fsub double %107, 1.000000e-03
  %109 = load ptr, ptr %7, align 8, !tbaa !65
  %110 = getelementptr inbounds nuw %struct.obj_state_s, ptr %109, i32 0, i32 5
  call void @cairogen_add_color_stop_rgba(ptr noundef %104, double noundef %108, ptr noundef %110)
  %111 = load ptr, ptr %11, align 8, !tbaa !94
  %112 = load ptr, ptr %7, align 8, !tbaa !65
  %113 = getelementptr inbounds nuw %struct.obj_state_s, ptr %112, i32 0, i32 8
  %114 = load double, ptr %113, align 8, !tbaa !96
  %115 = load ptr, ptr %7, align 8, !tbaa !65
  %116 = getelementptr inbounds nuw %struct.obj_state_s, ptr %115, i32 0, i32 6
  call void @cairogen_add_color_stop_rgba(ptr noundef %111, double noundef %114, ptr noundef %116)
  br label %124

117:                                              ; preds = %98
  %118 = load ptr, ptr %11, align 8, !tbaa !94
  %119 = load ptr, ptr %7, align 8, !tbaa !65
  %120 = getelementptr inbounds nuw %struct.obj_state_s, ptr %119, i32 0, i32 5
  call void @cairogen_add_color_stop_rgba(ptr noundef %118, double noundef 0.000000e+00, ptr noundef %120)
  %121 = load ptr, ptr %11, align 8, !tbaa !94
  %122 = load ptr, ptr %7, align 8, !tbaa !65
  %123 = getelementptr inbounds nuw %struct.obj_state_s, ptr %122, i32 0, i32 6
  call void @cairogen_add_color_stop_rgba(ptr noundef %121, double noundef 1.000000e+00, ptr noundef %123)
  br label %124

124:                                              ; preds = %117, %103
  %125 = load ptr, ptr %6, align 8, !tbaa !34
  %126 = load ptr, ptr %11, align 8, !tbaa !94
  call void @cairo_set_source(ptr noundef %125, ptr noundef %126)
  %127 = load ptr, ptr %6, align 8, !tbaa !34
  call void @cairo_fill_preserve(ptr noundef %127)
  %128 = load ptr, ptr %11, align 8, !tbaa !94
  call void @cairo_pattern_destroy(ptr noundef %128)
  call void @llvm.lifetime.end.p0(i64 16, ptr %14) #14
  call void @llvm.lifetime.end.p0(i64 32, ptr %13) #14
  call void @llvm.lifetime.end.p0(i64 8, ptr %12) #14
  call void @llvm.lifetime.end.p0(i64 8, ptr %11) #14
  ret void
}