; Function Attrs: nounwind uwtable
define internal fastcc void @cairo_gradient_fill(ptr noundef %0, ptr noundef readonly captures(none) %1, i32 noundef %2, ptr noundef %3, i64 noundef %4) unnamed_addr #0 {
  %6 = alloca [2 x %struct.pointf_s], align 16
  %7 = getelementptr inbounds nuw i8, ptr %1, i64 152
  %8 = load i32, ptr %7, align 8, !tbaa !78
  %9 = sitofp i32 %8 to double
  %10 = fmul double %9, 0x400921FB54442D18
  %11 = fdiv double %10, 1.800000e+02
  call void @llvm.lifetime.start.p0(i64 32, ptr nonnull %6) #20
  %12 = icmp eq i32 %2, 2
  br i1 %12, label %13, label %22

13:                                               ; preds = %5
  call void @get_gradient_points(ptr noundef %3, ptr noundef nonnull %6, i64 noundef %4, double noundef %11, i32 noundef 0) #20
  %14 = load double, ptr %6, align 16, !tbaa !62
  %15 = getelementptr inbounds nuw i8, ptr %6, i64 8
  %16 = load double, ptr %15, align 8, !tbaa !64
  %17 = getelementptr inbounds nuw i8, ptr %6, i64 16
  %18 = load double, ptr %17, align 16, !tbaa !62
  %19 = getelementptr inbounds nuw i8, ptr %6, i64 24
  %20 = load double, ptr %19, align 8, !tbaa !64
  %21 = call ptr @cairo_pattern_create_linear(double noundef %14, double noundef %16, double noundef %18, double noundef %20) #20
  br label %44

22:                                               ; preds = %5
  call void @get_gradient_points(ptr noundef %3, ptr noundef nonnull %6, i64 noundef %4, double noundef 0.000000e+00, i32 noundef 1) #20
  %23 = getelementptr inbounds nuw i8, ptr %6, i64 16
  %24 = load double, ptr %23, align 16, !tbaa !62
  %25 = getelementptr inbounds nuw i8, ptr %6, i64 24
  %26 = load double, ptr %25, align 8, !tbaa !64
  %27 = load i32, ptr %7, align 8, !tbaa !78
  %28 = icmp eq i32 %27, 0
  %29 = load double, ptr %6, align 16, !tbaa !62
  br i1 %28, label %30, label %33

30:                                               ; preds = %22
  %31 = getelementptr inbounds nuw i8, ptr %6, i64 8
  %32 = load double, ptr %31, align 8, !tbaa !64
  br label %41

33:                                               ; preds = %22
  %34 = call double @cos(double noundef %11) #20, !tbaa !37
  %35 = call double @llvm.fmuladd.f64(double %24, double %34, double %29)
  %36 = getelementptr inbounds nuw i8, ptr %6, i64 8
  %37 = load double, ptr %36, align 8, !tbaa !64
  %38 = call double @sin(double noundef %11) #20, !tbaa !37
  %39 = fneg double %24
  %40 = call double @llvm.fmuladd.f64(double %39, double %38, double %37)
  br label %41

41:                                               ; preds = %33, %30
  %42 = phi double [ %32, %30 ], [ %37, %33 ]
  %.sroa.0.0 = phi double [ %29, %30 ], [ %35, %33 ]
  %.sroa.5.0 = phi double [ %32, %30 ], [ %40, %33 ]
  %43 = call ptr @cairo_pattern_create_radial(double noundef %.sroa.0.0, double noundef %.sroa.5.0, double noundef %24, double noundef %29, double noundef %42, double noundef %26) #20
  br label %44

44:                                               ; preds = %41, %13
  %.0 = phi ptr [ %21, %13 ], [ %43, %41 ]
  %45 = getelementptr inbounds nuw i8, ptr %1, i64 160
  %46 = load double, ptr %45, align 8, !tbaa !79
  %47 = fcmp ogt double %46, 0.000000e+00
  br i1 %47, label %48, label %59

48:                                               ; preds = %44
  %49 = fadd double %46, -1.000000e-03
  %50 = getelementptr inbounds nuw i8, ptr %1, i64 72
  %51 = load double, ptr %50, align 8, !tbaa !38
  %52 = getelementptr inbounds nuw i8, ptr %1, i64 80
  %53 = load double, ptr %52, align 8, !tbaa !38
  %54 = getelementptr inbounds nuw i8, ptr %1, i64 88
  %55 = load double, ptr %54, align 8, !tbaa !38
  %56 = getelementptr inbounds nuw i8, ptr %1, i64 96
  %57 = load double, ptr %56, align 8, !tbaa !38
  call void @cairo_pattern_add_color_stop_rgba(ptr noundef %.0, double noundef %49, double noundef %51, double noundef %53, double noundef %55, double noundef %57) #20
  %58 = load double, ptr %45, align 8, !tbaa !79
  br label %68

59:                                               ; preds = %44
  %60 = getelementptr inbounds nuw i8, ptr %1, i64 72
  %61 = load double, ptr %60, align 8, !tbaa !38
  %62 = getelementptr inbounds nuw i8, ptr %1, i64 80
  %63 = load double, ptr %62, align 8, !tbaa !38
  %64 = getelementptr inbounds nuw i8, ptr %1, i64 88
  %65 = load double, ptr %64, align 8, !tbaa !38
  %66 = getelementptr inbounds nuw i8, ptr %1, i64 96
  %67 = load double, ptr %66, align 8, !tbaa !38
  call void @cairo_pattern_add_color_stop_rgba(ptr noundef %.0, double noundef 0.000000e+00, double noundef %61, double noundef %63, double noundef %65, double noundef %67) #20
  br label %68

68:                                               ; preds = %59, %48
  %.sink = phi double [ 1.000000e+00, %59 ], [ %58, %48 ]
  %69 = getelementptr inbounds nuw i8, ptr %1, i64 112
  %70 = load double, ptr %69, align 8, !tbaa !38
  %71 = getelementptr inbounds nuw i8, ptr %1, i64 120
  %72 = load double, ptr %71, align 8, !tbaa !38
  %73 = getelementptr inbounds nuw i8, ptr %1, i64 128
  %74 = load double, ptr %73, align 8, !tbaa !38
  %75 = getelementptr inbounds nuw i8, ptr %1, i64 136
  %76 = load double, ptr %75, align 8, !tbaa !38
  call void @cairo_pattern_add_color_stop_rgba(ptr noundef %.0, double noundef %.sink, double noundef %70, double noundef %72, double noundef %74, double noundef %76) #20
  call void @cairo_set_source(ptr noundef %0, ptr noundef %.0) #20
  call void @cairo_fill_preserve(ptr noundef %0) #20
  call void @cairo_pattern_destroy(ptr noundef %.0) #20
  call void @llvm.lifetime.end.p0(i64 32, ptr nonnull %6) #20
  ret void
}